target datalayout = "e-m:e-p270:32:32-p271:32:32-p272:64:64-i64:64-i128:128-f80:128-n8:16:32:64-S128"
target triple = "x86_64-pc-linux-gnu"

%"class.gmx::FlagsTemplate" = type { i64 }
%"class.std::__cxx11::basic_string" = type { %"struct.std::__cxx11::basic_string<char>::_Alloc_hider", i64, %union.anon }
%"struct.std::__cxx11::basic_string<char>::_Alloc_hider" = type { ptr }
%union.anon = type { i64, [8 x i8] }
%"class.gmx::AbstractOptionStorage" = type <{ ptr, %"class.std::__cxx11::basic_string", %"class.std::__cxx11::basic_string", %"class.gmx::FlagsTemplate", ptr, i32, i32, i8, i8, [6 x i8] }>

; Function Attrs: mustprogress nounwind uwtable
define linkonce_odr void @_ZN3gmx13FlagsTemplateINS_10OptionFlagEE3setES1_(ptr noundef nonnull align 8 dereferenceable(8) %0, i64 noundef %1) #1 comdat align 2 {
  %3 = alloca ptr, align 8
  %4 = alloca i64, align 8
  store ptr %0, ptr %3, align 8, !tbaa !35
  store i64 %1, ptr %4, align 8, !tbaa !38
  %5 = load ptr, ptr %3, align 8
  %6 = load i64, ptr %4, align 8, !tbaa !38
  %7 = getelementptr inbounds nuw %"class.gmx::FlagsTemplate", ptr %5, i32 0, i32 0
  %8 = load i64, ptr %7, align 8, !tbaa !37
  %9 = or i64 %8, %6
  store i64 %9, ptr %7, align 8, !tbaa !37
  ret void
}

; Function Attrs: mustprogress uwtable
define linkonce_odr void @_ZN3gmx21AbstractOptionStorage7setFlagENS_10OptionFlagE(ptr noundef nonnull align 8 dereferenceable(98) %0, i64 noundef %1) #0 comdat align 2 {
  %3 = alloca ptr, align 8
  %4 = alloca i64, align 8
  store ptr %0, ptr %3, align 8, !tbaa !3
  store i64 %1, ptr %4, align 8, !tbaa !38
  %5 = load ptr, ptr %3, align 8
  %6 = getelementptr inbounds nuw %"class.gmx::AbstractOptionStorage", ptr %5, i32 0, i32 3
  %7 = load i64, ptr %4, align 8, !tbaa !38
  call void @_ZN3gmx13FlagsTemplateINS_10OptionFlagEE3setES1_(ptr noundef nonnull align 8 dereferenceable(8) %6, i64 noundef %7)
  ret void
}

; Function Attrs: mustprogress uwtable
define void @_ZN3gmx21AbstractOptionStorage9markAsSetEv(ptr noundef nonnull align 8 dereferenceable(98) %0) #0 align 2 {
  %2 = alloca ptr, align 8
  store ptr %0, ptr %2, align 8, !tbaa !3
  %3 = load ptr, ptr %2, align 8
  call void @_ZN3gmx21AbstractOptionStorage7setFlagENS_10OptionFlagE(ptr noundef nonnull align 8 dereferenceable(98) %3, i64 noundef 1)
  %4 = getelementptr inbounds nuw %"class.gmx::AbstractOptionStorage", ptr %3, i32 0, i32 4
  %5 = load ptr, ptr %4, align 8, !tbaa !19
  %6 = icmp ne ptr %5, null
  br i1 %6, label %7, label %10

7:                                                ; preds = %1
  %8 = getelementptr inbounds nuw %"class.gmx::AbstractOptionStorage", ptr %3, i32 0, i32 4
  %9 = load ptr, ptr %8, align 8, !tbaa !19
  store i8 1, ptr %9, align 1, !tbaa !32
  br label %10

10:                                               ; preds = %7, %1
  ret void
}