; Function Attrs: mustprogress nofree norecurse nosync nounwind willreturn memory(write, argmem: readwrite, inaccessiblemem: none) uwtable
define void @_ZN3gmx21AbstractOptionStorage9markAsSetEv(ptr noundef nonnull align 8 captures(none) dereferenceable(98) %0) local_unnamed_addr #15 align 2 {
  %2 = getelementptr inbounds nuw i8, ptr %0, i64 72
  %3 = load i64, ptr %2, align 8, !tbaa !15
  %4 = or i64 %3, 1
  store i64 %4, ptr %2, align 8, !tbaa !15
  %5 = getelementptr inbounds nuw i8, ptr %0, i64 80
  %6 = load ptr, ptr %5, align 8, !tbaa !21
  %.not = icmp eq ptr %6, null
  br i1 %.not, label %8, label %7

7:                                                ; preds = %1
  store i8 1, ptr %6, align 1, !tbaa !34
  br label %8

8:                                                ; preds = %7, %1
  ret void
}